target datalayout = "e-m:e-p270:32:32-p271:32:32-p272:64:64-i64:64-i128:128-f80:128-n8:16:32:64-S128"
target triple = "x86_64-pc-linux-gnu"

%struct.filelist = type { i8, i8, ptr }
%struct.file = type { i32, i32, ptr, ptr }

; Function Attrs: nounwind uwtable
define internal void @up_irq_enable() #0 {
  call void asm sideeffect "sti", "~{memory},~{dirflag},~{fpsr},~{flags}"() #6, !srcloc !20
  ret void
}

; Function Attrs: nounwind uwtable
define internal zeroext i1 @up_irq_enabled(i64 noundef %0) #0 {
  %2 = alloca i64, align 8
  store i64 %0, ptr %2, align 8
  %3 = load i64, ptr %2, align 8
  %4 = and i64 %3, 512
  %5 = icmp ne i64 %4, 0
  ret i1 %5
}

; Function Attrs: nounwind uwtable
define internal void @up_irq_disable() #0 {
  call void asm sideeffect "cli", "~{memory},~{dirflag},~{fpsr},~{flags}"() #6, !srcloc !18
  ret void
}

; Function Attrs: nounwind uwtable
define internal i64 @irqflags() #0 {
  %1 = alloca i64, align 8
  call void asm sideeffect "\09pushfq\0A\09popq $0\0A", "=*rm,~{memory},~{dirflag},~{fpsr},~{flags}"(ptr elementtype(i64) %1) #6, !srcloc !19
  %2 = load i64, ptr %1, align 8
  ret i64 %2
}

; Function Attrs: nounwind uwtable
define internal void @up_irq_restore(i64 noundef %0) #0 {
  %2 = alloca i64, align 8
  store i64 %0, ptr %2, align 8
  %3 = load i64, ptr %2, align 8
  %4 = call zeroext i1 @up_irq_enabled(i64 noundef %3)
  br i1 %4, label %5, label %6

5:                                                ; preds = %1
  call void @up_irq_enable()
  br label %6

6:                                                ; preds = %5, %1
  ret void
}

; Function Attrs: nounwind uwtable
define internal i64 @up_irq_save() #0 {
  %1 = alloca i64, align 8
  %2 = call i64 @irqflags()
  store i64 %2, ptr %1, align 8
  call void @up_irq_disable()
  %3 = load i64, ptr %1, align 8
  ret i64 %3
}

; Function Attrs: nounwind uwtable
define internal ptr @files_fget_by_index(ptr noundef %0, i32 noundef %1, i32 noundef %2) #0 {
  %4 = alloca ptr, align 8
  %5 = alloca i32, align 4
  %6 = alloca i32, align 4
  %7 = alloca ptr, align 8
  %8 = alloca i64, align 8
  store ptr %0, ptr %4, align 8
  store i32 %1, ptr %5, align 4
  store i32 %2, ptr %6, align 4
  %9 = call i64 @up_irq_save()
  store i64 %9, ptr %8, align 8
  %10 = load ptr, ptr %4, align 8
  %11 = getelementptr inbounds %struct.filelist, ptr %10, i32 0, i32 2
  %12 = load ptr, ptr %11, align 8
  %13 = load i32, ptr %5, align 4
  %14 = sext i32 %13 to i64
  %15 = getelementptr inbounds ptr, ptr %12, i64 %14
  %16 = load ptr, ptr %15, align 8
  %17 = load i32, ptr %6, align 4
  %18 = sext i32 %17 to i64
  %19 = getelementptr inbounds %struct.file, ptr %16, i64 %18
  store ptr %19, ptr %7, align 8
  %20 = load i64, ptr %8, align 8
  call void @up_irq_restore(i64 noundef %20)
  %21 = load ptr, ptr %7, align 8
  ret ptr %21
}

; Function Attrs: nounwind uwtable
define i32 @files_duplist(ptr noundef %0, ptr noundef %1, ptr noundef %2, i1 noundef zeroext %3) #0 {
  %5 = alloca i32, align 4
  %6 = alloca ptr, align 8
  %7 = alloca ptr, align 8
  %8 = alloca ptr, align 8
  %9 = alloca i8, align 1
  %10 = alloca i8, align 1
  %11 = alloca i32, align 4
  %12 = alloca i32, align 4
  %13 = alloca i32, align 4
  %14 = alloca i32, align 4
  %15 = alloca ptr, align 8
  store ptr %0, ptr %6, align 8
  store ptr %1, ptr %7, align 8
  store ptr %2, ptr %8, align 8
  %16 = zext i1 %3 to i8
  store i8 %16, ptr %9, align 1
  store i32 0, ptr %13, align 4
  br label %17

17:                                               ; preds = %95, %4
  %18 = load i32, ptr %13, align 4
  %19 = load ptr, ptr %6, align 8
  %20 = getelementptr inbounds %struct.filelist, ptr %19, i32 0, i32 1
  %21 = load i8, ptr %20, align 1
  %22 = zext i8 %21 to i32
  %23 = icmp slt i32 %18, %22
  br i1 %23, label %24, label %98

24:                                               ; preds = %17
  store i32 0, ptr %14, align 4
  br label %25

25:                                               ; preds = %91, %24
  %26 = load i32, ptr %14, align 4
  %27 = icmp slt i32 %26, 8
  br i1 %27, label %28, label %94

28:                                               ; preds = %25
  %29 = load i32, ptr %13, align 4
  %30 = mul nsw i32 %29, 8
  %31 = load i32, ptr %14, align 4
  %32 = add nsw i32 %30, %31
  store i32 %32, ptr %12, align 4
  %33 = load ptr, ptr %6, align 8
  %34 = load i32, ptr %13, align 4
  %35 = load i32, ptr %14, align 4
  %36 = call ptr @files_fget_by_index(ptr noundef %33, i32 noundef %34, i32 noundef %35)
  store ptr %36, ptr %15, align 8
  %37 = load ptr, ptr %15, align 8
  %38 = getelementptr inbounds %struct.file, ptr %37, i32 0, i32 2
  %39 = load ptr, ptr %38, align 8
  %40 = icmp eq ptr %39, null
  br i1 %40, label %41, label %42

41:                                               ; preds = %28
  br label %91

42:                                               ; preds = %28
  %43 = load i8, ptr %9, align 1
  %44 = trunc i8 %43 to i1
  br i1 %44, label %45, label %51

45:                                               ; preds = %42
  %46 = load ptr, ptr %15, align 8
  %47 = getelementptr inbounds %struct.file, ptr %46, i32 0, i32 0
  %48 = load i32, ptr %47, align 8
  %49 = and i32 %48, 1024
  %50 = icmp ne i32 %49, 0
  br label %51

51:                                               ; preds = %45, %42
  %52 = phi i1 [ false, %42 ], [ %50, %45 ]
  %53 = zext i1 %52 to i8
  store i8 %53, ptr %10, align 1
  %54 = load ptr, ptr %8, align 8
  %55 = icmp ne ptr %54, null
  br i1 %55, label %56, label %64

56:                                               ; preds = %51
  %57 = load ptr, ptr %8, align 8
  %58 = load i32, ptr %12, align 4
  %59 = load i8, ptr %10, align 1
  %60 = trunc i8 %59 to i1
  %61 = call zeroext i1 @spawn_file_is_duplicateable(ptr noundef %57, i32 noundef %58, i1 noundef zeroext %60)
  br i1 %61, label %63, label %62

62:                                               ; preds = %56
  br label %91

63:                                               ; preds = %56
  br label %69

64:                                               ; preds = %51
  %65 = load i8, ptr %10, align 1
  %66 = trunc i8 %65 to i1
  br i1 %66, label %67, label %68

67:                                               ; preds = %64
  br label %91

68:                                               ; preds = %64
  br label %69

69:                                               ; preds = %68, %63
  %70 = load ptr, ptr %7, align 8
  %71 = load i32, ptr %13, align 4
  %72 = add nsw i32 %71, 1
  %73 = sext i32 %72 to i64
  %74 = call i32 @files_extend(ptr noundef %70, i64 noundef %73)
  store i32 %74, ptr %11, align 4
  %75 = load i32, ptr %11, align 4
  %76 = icmp slt i32 %75, 0
  br i1 %76, label %77, label %79

77:                                               ; preds = %69
  %78 = load i32, ptr %11, align 4
  store i32 %78, ptr %5, align 4
  br label %99

79:                                               ; preds = %69
  %80 = load ptr, ptr %15, align 8
  %81 = load ptr, ptr %7, align 8
  %82 = load i32, ptr %13, align 4
  %83 = load i32, ptr %14, align 4
  %84 = call ptr @files_fget_by_index(ptr noundef %81, i32 noundef %82, i32 noundef %83)
  %85 = call i32 @file_dup2(ptr noundef %80, ptr noundef %84)
  store i32 %85, ptr %11, align 4
  %86 = load i32, ptr %11, align 4
  %87 = icmp slt i32 %86, 0
  br i1 %87, label %88, label %90

88:                                               ; preds = %79
  %89 = load i32, ptr %11, align 4
  store i32 %89, ptr %5, align 4
  br label %99

90:                                               ; preds = %79
  br label %91

91:                                               ; preds = %90, %67, %62, %41
  %92 = load i32, ptr %14, align 4
  %93 = add nsw i32 %92, 1
  store i32 %93, ptr %14, align 4
  br label %25, !llvm.loop !14

94:                                               ; preds = %25
  br label %95

95:                                               ; preds = %94
  %96 = load i32, ptr %13, align 4
  %97 = add nsw i32 %96, 1
  store i32 %97, ptr %13, align 4
  br label %17, !llvm.loop !15

98:                                               ; preds = %17
  store i32 0, ptr %5, align 4
  br label %99

99:                                               ; preds = %98, %88, %77
  %100 = load i32, ptr %5, align 4
  ret i32 %100
}