; Function Attrs: nounwind uwtable
define range(i32 -2147483648, 1) i32 @files_duplist(ptr noundef readonly captures(none) %0, ptr noundef captures(none) %1, ptr noundef %2, i1 noundef zeroext %3) local_unnamed_addr #1 {
  %5 = alloca i64, align 8
  %6 = alloca i64, align 8
  %7 = getelementptr inbounds nuw i8, ptr %0, i64 1
  %8 = load i8, ptr %7, align 1
  %.not43 = icmp eq i8 %8, 0
  br i1 %.not43, label %.loopexit, label %.preheader.lr.ph

.preheader.lr.ph:                                 ; preds = %4
  %9 = getelementptr inbounds nuw i8, ptr %0, i64 8
  %.not35 = icmp eq ptr %2, null
  %10 = getelementptr inbounds nuw i8, ptr %1, i64 8
  br i1 %3, label %.preheader.lr.ph.split.us, label %.preheader

.preheader.lr.ph.split.us:                        ; preds = %.preheader.lr.ph
  br i1 %.not35, label %.preheader.us.us, label %.preheader.us

.preheader.us.us:                                 ; preds = %.preheader.lr.ph.split.us, %.split.us.us.split.us.us
  %indvars.iv67 = phi i64 [ %indvars.iv.next68, %.split.us.us.split.us.us ], [ 0, %.preheader.lr.ph.split.us ]
  %indvars.iv.next68 = add nuw nsw i64 %indvars.iv67, 1
  br label %11

11:                                               ; preds = %37, %.preheader.us.us
  %indvars.iv63 = phi i64 [ %indvars.iv.next64, %37 ], [ 0, %.preheader.us.us ]
  call void @llvm.lifetime.start.p0(i64 8, ptr nonnull %6)
  call void asm sideeffect "\09pushfq\0A\09popq $0\0A", "=*rm,~{memory},~{dirflag},~{fpsr},~{flags}"(ptr nonnull elementtype(i64) %6) #10, !srcloc !9
  %12 = load i64, ptr %6, align 8
  call void @llvm.lifetime.end.p0(i64 8, ptr nonnull %6)
  call void asm sideeffect "cli", "~{memory},~{dirflag},~{fpsr},~{flags}"() #10, !srcloc !10
  %13 = load ptr, ptr %9, align 8
  %14 = getelementptr inbounds nuw ptr, ptr %13, i64 %indvars.iv67
  %15 = load ptr, ptr %14, align 8
  %16 = and i64 %12, 512
  %.not.i.i.us.us.us.us = icmp eq i64 %16, 0
  br i1 %.not.i.i.us.us.us.us, label %files_fget_by_index.exit.us.us.us.us, label %17

17:                                               ; preds = %11
  call void asm sideeffect "sti", "~{memory},~{dirflag},~{fpsr},~{flags}"() #10, !srcloc !11
  br label %files_fget_by_index.exit.us.us.us.us

files_fget_by_index.exit.us.us.us.us:             ; preds = %17, %11
  %18 = getelementptr inbounds nuw %struct.file, ptr %15, i64 %indvars.iv63
  %19 = getelementptr inbounds nuw i8, ptr %18, i64 8
  %20 = load ptr, ptr %19, align 8
  %21 = icmp eq ptr %20, null
  br i1 %21, label %37, label %22

22:                                               ; preds = %files_fget_by_index.exit.us.us.us.us
  %23 = load i32, ptr %18, align 8
  %24 = and i32 %23, 1024
  %.not44 = icmp eq i32 %24, 0
  br i1 %.not44, label %.thread36.us.us.us.us, label %37

.thread36.us.us.us.us:                            ; preds = %22
  %25 = call fastcc i32 @files_extend(ptr noundef %1, i64 noundef %indvars.iv.next68)
  %26 = icmp slt i32 %25, 0
  br i1 %26, label %.loopexit, label %27

27:                                               ; preds = %.thread36.us.us.us.us
  call void @llvm.lifetime.start.p0(i64 8, ptr nonnull %5)
  call void asm sideeffect "\09pushfq\0A\09popq $0\0A", "=*rm,~{memory},~{dirflag},~{fpsr},~{flags}"(ptr nonnull elementtype(i64) %5) #10, !srcloc !9
  %28 = load i64, ptr %5, align 8
  call void @llvm.lifetime.end.p0(i64 8, ptr nonnull %5)
  call void asm sideeffect "cli", "~{memory},~{dirflag},~{fpsr},~{flags}"() #10, !srcloc !10
  %29 = load ptr, ptr %10, align 8
  %30 = getelementptr inbounds nuw ptr, ptr %29, i64 %indvars.iv67
  %31 = load ptr, ptr %30, align 8
  %32 = and i64 %28, 512
  %.not.i.i33.us.us.us.us = icmp eq i64 %32, 0
  br i1 %.not.i.i33.us.us.us.us, label %files_fget_by_index.exit34.us.us.us.us, label %33

33:                                               ; preds = %27
  call void asm sideeffect "sti", "~{memory},~{dirflag},~{fpsr},~{flags}"() #10, !srcloc !11
  br label %files_fget_by_index.exit34.us.us.us.us

files_fget_by_index.exit34.us.us.us.us:           ; preds = %33, %27
  %34 = getelementptr inbounds nuw %struct.file, ptr %31, i64 %indvars.iv63
  %35 = call i32 @file_dup2(ptr noundef nonnull %18, ptr noundef %34) #10
  %36 = icmp slt i32 %35, 0
  br i1 %36, label %.loopexit, label %37

37:                                               ; preds = %files_fget_by_index.exit34.us.us.us.us, %22, %files_fget_by_index.exit.us.us.us.us
  %indvars.iv.next64 = add nuw nsw i64 %indvars.iv63, 1
  %exitcond66.not = icmp eq i64 %indvars.iv.next64, 8
  br i1 %exitcond66.not, label %.split.us.us.split.us.us, label %11, !llvm.loop !17

.split.us.us.split.us.us:                         ; preds = %37
  %38 = load i8, ptr %7, align 1
  %39 = zext i8 %38 to i64
  %40 = icmp samesign ult i64 %indvars.iv.next68, %39
  br i1 %40, label %.preheader.us.us, label %.loopexit, !llvm.loop !18

.preheader.us:                                    ; preds = %.preheader.lr.ph.split.us, %.split.us.us.split
  %indvars.iv60 = phi i64 [ %indvars.iv.next61, %.split.us.us.split ], [ 0, %.preheader.lr.ph.split.us ]
  %41 = shl nuw nsw i64 %indvars.iv60, 3
  %indvars.iv.next61 = add nuw nsw i64 %indvars.iv60, 1
  br label %42

42:                                               ; preds = %72, %.preheader.us
  %indvars.iv56 = phi i64 [ %indvars.iv.next57, %72 ], [ 0, %.preheader.us ]
  %43 = add nuw nsw i64 %indvars.iv56, %41
  call void @llvm.lifetime.start.p0(i64 8, ptr nonnull %6)
  call void asm sideeffect "\09pushfq\0A\09popq $0\0A", "=*rm,~{memory},~{dirflag},~{fpsr},~{flags}"(ptr nonnull elementtype(i64) %6) #10, !srcloc !9
  %44 = load i64, ptr %6, align 8
  call void @llvm.lifetime.end.p0(i64 8, ptr nonnull %6)
  call void asm sideeffect "cli", "~{memory},~{dirflag},~{fpsr},~{flags}"() #10, !srcloc !10
  %45 = load ptr, ptr %9, align 8
  %46 = getelementptr inbounds nuw ptr, ptr %45, i64 %indvars.iv60
  %47 = load ptr, ptr %46, align 8
  %48 = and i64 %44, 512
  %.not.i.i.us.us = icmp eq i64 %48, 0
  br i1 %.not.i.i.us.us, label %files_fget_by_index.exit.us.us, label %49

49:                                               ; preds = %42
  call void asm sideeffect "sti", "~{memory},~{dirflag},~{fpsr},~{flags}"() #10, !srcloc !11
  br label %files_fget_by_index.exit.us.us

files_fget_by_index.exit.us.us:                   ; preds = %49, %42
  %50 = getelementptr inbounds nuw %struct.file, ptr %47, i64 %indvars.iv56
  %51 = getelementptr inbounds nuw i8, ptr %50, i64 8
  %52 = load ptr, ptr %51, align 8
  %53 = icmp eq ptr %52, null
  br i1 %53, label %72, label %54

54:                                               ; preds = %files_fget_by_index.exit.us.us
  %55 = load i32, ptr %50, align 8
  %56 = and i32 %55, 1024
  %57 = icmp ne i32 %56, 0
  %58 = trunc nuw nsw i64 %43 to i32
  %59 = call zeroext i1 @spawn_file_is_duplicateable(ptr noundef nonnull %2, i32 noundef %58, i1 noundef zeroext %57) #10
  br i1 %59, label %.thread36.us.us, label %72

.thread36.us.us:                                  ; preds = %54
  %60 = call fastcc i32 @files_extend(ptr noundef %1, i64 noundef %indvars.iv.next61)
  %61 = icmp slt i32 %60, 0
  br i1 %61, label %.loopexit, label %62

62:                                               ; preds = %.thread36.us.us
  call void @llvm.lifetime.start.p0(i64 8, ptr nonnull %5)
  call void asm sideeffect "\09pushfq\0A\09popq $0\0A", "=*rm,~{memory},~{dirflag},~{fpsr},~{flags}"(ptr nonnull elementtype(i64) %5) #10, !srcloc !9
  %63 = load i64, ptr %5, align 8
  call void @llvm.lifetime.end.p0(i64 8, ptr nonnull %5)
  call void asm sideeffect "cli", "~{memory},~{dirflag},~{fpsr},~{flags}"() #10, !srcloc !10
  %64 = load ptr, ptr %10, align 8
  %65 = getelementptr inbounds nuw ptr, ptr %64, i64 %indvars.iv60
  %66 = load ptr, ptr %65, align 8
  %67 = and i64 %63, 512
  %.not.i.i33.us.us = icmp eq i64 %67, 0
  br i1 %.not.i.i33.us.us, label %files_fget_by_index.exit34.us.us, label %68

68:                                               ; preds = %62
  call void asm sideeffect "sti", "~{memory},~{dirflag},~{fpsr},~{flags}"() #10, !srcloc !11
  br label %files_fget_by_index.exit34.us.us

files_fget_by_index.exit34.us.us:                 ; preds = %68, %62
  %69 = getelementptr inbounds nuw %struct.file, ptr %66, i64 %indvars.iv56
  %70 = call i32 @file_dup2(ptr noundef nonnull %50, ptr noundef %69) #10
  %71 = icmp slt i32 %70, 0
  br i1 %71, label %.loopexit, label %72

72:                                               ; preds = %files_fget_by_index.exit34.us.us, %54, %files_fget_by_index.exit.us.us
  %indvars.iv.next57 = add nuw nsw i64 %indvars.iv56, 1
  %exitcond59.not = icmp eq i64 %indvars.iv.next57, 8
  br i1 %exitcond59.not, label %.split.us.us.split, label %42, !llvm.loop !17

.split.us.us.split:                               ; preds = %72
  %73 = load i8, ptr %7, align 1
  %74 = zext i8 %73 to i64
  %75 = icmp samesign ult i64 %indvars.iv.next61, %74
  br i1 %75, label %.preheader.us, label %.loopexit, !llvm.loop !18

.preheader:                                       ; preds = %.preheader.lr.ph, %.split
  %indvars.iv53 = phi i64 [ %indvars.iv.next54, %.split ], [ 0, %.preheader.lr.ph ]
  %76 = shl nuw nsw i64 %indvars.iv53, 3
  %indvars.iv.next54 = add nuw nsw i64 %indvars.iv53, 1
  br label %77

77:                                               ; preds = %.preheader, %104
  %indvars.iv = phi i64 [ 0, %.preheader ], [ %indvars.iv.next, %104 ]
  %78 = add nuw nsw i64 %indvars.iv, %76
  call void @llvm.lifetime.start.p0(i64 8, ptr nonnull %6)
  call void asm sideeffect "\09pushfq\0A\09popq $0\0A", "=*rm,~{memory},~{dirflag},~{fpsr},~{flags}"(ptr nonnull elementtype(i64) %6) #10, !srcloc !9
  %79 = load i64, ptr %6, align 8
  call void @llvm.lifetime.end.p0(i64 8, ptr nonnull %6)
  call void asm sideeffect "cli", "~{memory},~{dirflag},~{fpsr},~{flags}"() #10, !srcloc !10
  %80 = load ptr, ptr %9, align 8
  %81 = getelementptr inbounds nuw ptr, ptr %80, i64 %indvars.iv53
  %82 = load ptr, ptr %81, align 8
  %83 = and i64 %79, 512
  %.not.i.i = icmp eq i64 %83, 0
  br i1 %.not.i.i, label %files_fget_by_index.exit, label %84

84:                                               ; preds = %77
  call void asm sideeffect "sti", "~{memory},~{dirflag},~{fpsr},~{flags}"() #10, !srcloc !11
  br label %files_fget_by_index.exit

files_fget_by_index.exit:                         ; preds = %77, %84
  %85 = getelementptr inbounds nuw %struct.file, ptr %82, i64 %indvars.iv
  %86 = getelementptr inbounds nuw i8, ptr %85, i64 8
  %87 = load ptr, ptr %86, align 8
  %88 = icmp eq ptr %87, null
  br i1 %88, label %104, label %.thread

.thread:                                          ; preds = %files_fget_by_index.exit
  br i1 %.not35, label %.thread36, label %89

89:                                               ; preds = %.thread
  %90 = trunc nuw nsw i64 %78 to i32
  %91 = call zeroext i1 @spawn_file_is_duplicateable(ptr noundef nonnull %2, i32 noundef %90, i1 noundef zeroext false) #10
  br i1 %91, label %.thread36, label %104

.thread36:                                        ; preds = %.thread, %89
  %92 = call fastcc i32 @files_extend(ptr noundef %1, i64 noundef %indvars.iv.next54)
  %93 = icmp slt i32 %92, 0
  br i1 %93, label %.loopexit, label %94

94:                                               ; preds = %.thread36
  call void @llvm.lifetime.start.p0(i64 8, ptr nonnull %5)
  call void asm sideeffect "\09pushfq\0A\09popq $0\0A", "=*rm,~{memory},~{dirflag},~{fpsr},~{flags}"(ptr nonnull elementtype(i64) %5) #10, !srcloc !9
  %95 = load i64, ptr %5, align 8
  call void @llvm.lifetime.end.p0(i64 8, ptr nonnull %5)
  call void asm sideeffect "cli", "~{memory},~{dirflag},~{fpsr},~{flags}"() #10, !srcloc !10
  %96 = load ptr, ptr %10, align 8
  %97 = getelementptr inbounds nuw ptr, ptr %96, i64 %indvars.iv53
  %98 = load ptr, ptr %97, align 8
  %99 = and i64 %95, 512
  %.not.i.i33 = icmp eq i64 %99, 0
  br i1 %.not.i.i33, label %files_fget_by_index.exit34, label %100

100:                                              ; preds = %94
  call void asm sideeffect "sti", "~{memory},~{dirflag},~{fpsr},~{flags}"() #10, !srcloc !11
  br label %files_fget_by_index.exit34

files_fget_by_index.exit34:                       ; preds = %94, %100
  %101 = getelementptr inbounds nuw %struct.file, ptr %98, i64 %indvars.iv
  %102 = call i32 @file_dup2(ptr noundef nonnull %85, ptr noundef %101) #10
  %103 = icmp slt i32 %102, 0
  br i1 %103, label %.loopexit, label %104

104:                                              ; preds = %files_fget_by_index.exit34, %89, %files_fget_by_index.exit
  %indvars.iv.next = add nuw nsw i64 %indvars.iv, 1
  %exitcond.not = icmp eq i64 %indvars.iv.next, 8
  br i1 %exitcond.not, label %.split, label %77, !llvm.loop !17

.split:                                           ; preds = %104
  %105 = load i8, ptr %7, align 1
  %106 = zext i8 %105 to i64
  %107 = icmp samesign ult i64 %indvars.iv.next54, %106
  br i1 %107, label %.preheader, label %.loopexit, !llvm.loop !18

.loopexit:                                        ; preds = %.split, %.thread36, %files_fget_by_index.exit34, %.split.us.us.split, %files_fget_by_index.exit34.us.us, %.thread36.us.us, %.split.us.us.split.us.us, %.thread36.us.us.us.us, %files_fget_by_index.exit34.us.us.us.us, %4
  %.0 = phi i32 [ 0, %4 ], [ %35, %files_fget_by_index.exit34.us.us.us.us ], [ %25, %.thread36.us.us.us.us ], [ 0, %.split.us.us.split.us.us ], [ %70, %files_fget_by_index.exit34.us.us ], [ %60, %.thread36.us.us ], [ 0, %.split.us.us.split ], [ %102, %files_fget_by_index.exit34 ], [ %92, %.thread36 ], [ 0, %.split ]
  ret i32 %.0
}